target datalayout = "e-m:e-p270:32:32-p271:32:32-p272:64:64-i64:64-i128:128-f80:128-n8:16:32:64-S128"
target triple = "x86_64-unknown-linux-gnu"

%struct.QEMUIOVector = type { ptr, i32, %union.anon }
%union.anon = type { %struct.anon }
%struct.anon = type { i32, %struct.iovec }
%struct.iovec = type { ptr, i64 }
%struct.IDEBus = type { %struct.BusState, ptr, ptr, [2 x %struct.IDEState], ptr, i32, i32, ptr, i8, i8, ptr, i32, i8, i64, i32, %struct.PortioList, %struct.PortioList, ptr }
%struct.BusState = type { %struct.Object, ptr, ptr, ptr, i32, i8, i8, i32, %union.BusChildHead, %struct.BusStateEntry, %struct.ResettableState }
%struct.Object = type { ptr, ptr, ptr, i32, ptr }
%union.BusChildHead = type { %struct.QTailQLink }
%struct.QTailQLink = type { ptr, ptr }
%struct.BusStateEntry = type { ptr, ptr }
%struct.ResettableState = type { i32, i8, i8 }
%struct.IDEState = type { ptr, i8, i32, i32, i32, i32, i32, i32, i32, i64, i32, i32, [512 x i8], i32, [21 x i8], [41 x i8], i64, i8, i8, i32, i8, i8, i8, i8, i8, i8, i8, i8, i8, i8, i8, i8, i8, ptr, [9 x i8], %struct.unreported_events, i8, i8, i8, i8, i8, i32, i32, i32, i32, i32, i32, %struct.BlockAcctCookie, ptr, %struct.QEMUIOVector, %struct.anon.1, i64, i32, %struct.QEMUSGList, i32, ptr, ptr, ptr, ptr, i32, i32, i32, i8, ptr, i32, i8, i32, ptr, i32, i32, i8, i8, i32, i8, ptr, i32 }
%struct.unreported_events = type { i8, i8 }
%struct.BlockAcctCookie = type { i64, i64, i32 }
%struct.anon.1 = type { ptr }
%struct.QEMUSGList = type { ptr, i32, i32, i64, ptr, ptr }
%struct.PortioList = type { ptr, ptr, ptr, i32, ptr, ptr, ptr, i8 }

; Function Attrs: nounwind sspstrong uwtable
define internal void @qemu_irq_raise(ptr noundef %irq) #0 {
entry:
  %irq.addr = alloca ptr, align 8
  store ptr %irq, ptr %irq.addr, align 8
  %0 = load ptr, ptr %irq.addr, align 8
  call void @qemu_set_irq(ptr noundef %0, i32 noundef 1)
  ret void
}

; Function Attrs: nounwind sspstrong uwtable
define dso_local void @ide_bus_set_irq(ptr noundef %bus) #0 {
entry:
  %bus.addr = alloca ptr, align 8
  store ptr %bus, ptr %bus.addr, align 8
  %0 = load ptr, ptr %bus.addr, align 8
  %cmd = getelementptr inbounds %struct.IDEBus, ptr %0, i32 0, i32 9
  %1 = load i8, ptr %cmd, align 1
  %conv = zext i8 %1 to i32
  %and = and i32 %conv, 2
  %tobool = icmp ne i32 %and, 0
  br i1 %tobool, label %if.end, label %if.then

if.then:                                          ; preds = %entry
  %2 = load ptr, ptr %bus.addr, align 8
  %irq = getelementptr inbounds %struct.IDEBus, ptr %2, i32 0, i32 10
  %3 = load ptr, ptr %irq, align 8
  call void @qemu_irq_raise(ptr noundef %3)
  br label %if.end

if.end:                                           ; preds = %if.then, %entry
  ret void
}

; Function Attrs: nounwind sspstrong uwtable
define internal void @ide_sector_write_timer_cb(ptr noundef %opaque) #0 {
entry:
  %opaque.addr = alloca ptr, align 8
  %s = alloca ptr, align 8
  store ptr %opaque, ptr %opaque.addr, align 8
  %0 = load ptr, ptr %opaque.addr, align 8
  store ptr %0, ptr %s, align 8
  %1 = load ptr, ptr %s, align 8
  %bus = getelementptr inbounds %struct.IDEState, ptr %1, i32 0, i32 0
  %2 = load ptr, ptr %bus, align 8
  call void @ide_bus_set_irq(ptr noundef %2)
  ret void
}