; Function Attrs: nounwind sspstrong uwtable
define internal void @ide_sector_write_timer_cb(ptr noundef readonly captures(none) %opaque) #0 {
entry:
  %0 = load ptr, ptr %opaque, align 8
  %cmd.i = getelementptr inbounds nuw i8, ptr %0, i64 2129
  %1 = load i8, ptr %cmd.i, align 1
  %2 = and i8 %1, 2
  %tobool.not.i = icmp eq i8 %2, 0
  br i1 %tobool.not.i, label %if.then.i, label %ide_bus_set_irq.exit

if.then.i:                                        ; preds = %entry
  %irq.i = getelementptr inbounds nuw i8, ptr %0, i64 2136
  %3 = load ptr, ptr %irq.i, align 8
  tail call void @qemu_set_irq(ptr noundef %3, i32 noundef 1) #17
  br label %ide_bus_set_irq.exit

ide_bus_set_irq.exit:                             ; preds = %entry, %if.then.i
  ret void
}